; Function Attrs: nounwind uwtable
define ptr @l___private_Lean_Environment_0__Lean_AsyncConsts_findRecTask___lambda__2(ptr noundef %0, ptr noundef %1, ptr readnone captures(none) %2) local_unnamed_addr #1 {
  %4 = getelementptr inbounds nuw i8, ptr %0, i64 24
  %5 = load ptr, ptr %4, align 8, !tbaa !9
  %6 = ptrtoint ptr %5 to i64
  %7 = and i64 %6, 1
  %.not = icmp eq i64 %7, 0
  br i1 %.not, label %8, label %lean_inc.exit

8:                                                ; preds = %3
  %.val.i = load i32, ptr %5, align 4, !tbaa !4
  %9 = icmp sgt i32 %.val.i, 0
  br i1 %9, label %10, label %12, !prof !11

10:                                               ; preds = %8
  %11 = add nuw i32 %.val.i, 1
  store i32 %11, ptr %5, align 4, !tbaa !4
  br label %lean_inc.exit

12:                                               ; preds = %8
  %.not.i9 = icmp eq i32 %.val.i, 0
  br i1 %.not.i9, label %lean_inc.exit, label %13

13:                                               ; preds = %12
  tail call void @lean_inc_ref_cold(ptr noundef nonnull %5) #10
  br label %lean_inc.exit

lean_inc.exit:                                    ; preds = %13, %12, %10, %3
  %14 = ptrtoint ptr %0 to i64
  %15 = and i64 %14, 1
  %.not10 = icmp eq i64 %15, 0
  br i1 %.not10, label %16, label %lean_dec.exit

16:                                               ; preds = %lean_inc.exit
  %17 = load i32, ptr %0, align 4, !tbaa !4
  %18 = icmp sgt i32 %17, 1
  br i1 %18, label %19, label %21, !prof !11

19:                                               ; preds = %16
  %20 = add nsw i32 %17, -1
  store i32 %20, ptr %0, align 4, !tbaa !4
  br label %lean_dec.exit

21:                                               ; preds = %16
  %.not.i = icmp eq i32 %17, 0
  br i1 %.not.i, label %lean_dec.exit, label %22

22:                                               ; preds = %21
  tail call void @lean_dec_ref_cold(ptr noundef nonnull %0) #10
  br label %lean_dec.exit

lean_dec.exit:                                    ; preds = %22, %21, %19, %lean_inc.exit
  tail call void @lean_inc_heartbeat() #10
  %23 = tail call noalias ptr @mi_malloc_small(i64 noundef 32) #10
  %24 = icmp eq ptr %23, null
  br i1 %24, label %25, label %lean_alloc_closure.exit

25:                                               ; preds = %lean_dec.exit
  tail call void @lean_internal_panic_out_of_memory() #11
  unreachable

lean_alloc_closure.exit:                          ; preds = %lean_dec.exit
  %26 = getelementptr inbounds nuw i8, ptr %23, i64 4
  store i32 1, ptr %23, align 4, !tbaa !4
  store i32 -184549344, ptr %26, align 4
  %27 = getelementptr inbounds nuw i8, ptr %23, i64 8
  store ptr @l___private_Lean_Environment_0__Lean_AsyncConsts_findRecTask___lambda__1___boxed, ptr %27, align 8, !tbaa !9
  %28 = getelementptr inbounds nuw i8, ptr %23, i64 16
  store i16 2, ptr %28, align 8, !tbaa !13
  %29 = getelementptr inbounds nuw i8, ptr %23, i64 18
  store i16 1, ptr %29, align 2, !tbaa !13
  %30 = getelementptr inbounds nuw i8, ptr %23, i64 24
  store ptr %1, ptr %30, align 8, !tbaa !9
  %31 = load ptr, ptr @l_Task_Priority_default, align 8, !tbaa !9
  %32 = ptrtoint ptr %31 to i64
  %33 = lshr i64 %32, 1
  %34 = trunc i64 %33 to i32
  %35 = tail call ptr @lean_task_bind_core(ptr noundef %5, ptr noundef nonnull %23, i32 noundef %34, i1 noundef zeroext true, i1 noundef zeroext false) #10
  ret ptr %35
}